target datalayout = "e-m:e-p270:32:32-p271:32:32-p272:64:64-i64:64-i128:128-f80:128-n8:16:32:64-S128"
target triple = "x86_64-pc-linux-gnu"

@sys_cursors = internal global [10 x ptr] zeroinitializer, align 16

; Function Attrs: nounwind uwtable
define hidden void @X11_SetHitTestCursor(i32 noundef %0) #0 {
  %2 = alloca i32, align 4
  store i32 %0, ptr %2, align 4
  %3 = load i32, ptr %2, align 4
  %4 = icmp eq i32 %3, 0
  br i1 %4, label %8, label %5

5:                                                ; preds = %1
  %6 = load i32, ptr %2, align 4
  %7 = icmp eq i32 %6, 1
  br i1 %7, label %8, label %9

8:                                                ; preds = %5, %1
  call void @SDL_RedrawCursor()
  br label %15

9:                                                ; preds = %5
  %10 = load i32, ptr %2, align 4
  %11 = zext i32 %10 to i64
  %12 = getelementptr inbounds nuw [10 x ptr], ptr @sys_cursors, i64 0, i64 %11
  %13 = load ptr, ptr %12, align 8
  %14 = call zeroext i1 @X11_ShowCursor(ptr noundef %13)
  br label %15

15:                                               ; preds = %9, %8
  ret void
}