; Function Attrs: nounwind uwtable
define hidden void @X11_SetHitTestCursor(i32 noundef %0) local_unnamed_addr #0 {
  %or.cond = icmp ult i32 %0, 2
  br i1 %or.cond, label %2, label %3

2:                                                ; preds = %1
  tail call void @SDL_RedrawCursor() #5
  br label %8

3:                                                ; preds = %1
  %4 = zext i32 %0 to i64
  %5 = getelementptr inbounds nuw [10 x ptr], ptr @sys_cursors, i64 0, i64 %4
  %6 = load ptr, ptr %5, align 8
  %7 = tail call zeroext i1 @X11_ShowCursor(ptr noundef %6)
  br label %8

8:                                                ; preds = %3, %2
  ret void
}